target datalayout = "e-m:e-p270:32:32-p271:32:32-p272:64:64-i64:64-i128:128-f80:128-n8:16:32:64-S128"
target triple = "x86_64-pc-linux-gnu"

; Function Attrs: nounwind uwtable
define hidden i32 @mbedtls_ssl_cipher_to_psa(i32 noundef %0, i64 noundef %1, ptr noundef %2, ptr noundef %3, ptr noundef %4) #0 {
  %6 = alloca i32, align 4
  %7 = alloca i32, align 4
  %8 = alloca i64, align 8
  %9 = alloca ptr, align 8
  %10 = alloca ptr, align 8
  %11 = alloca ptr, align 8
  store i32 %0, ptr %7, align 4, !tbaa !10
  store i64 %1, ptr %8, align 8, !tbaa !8
  store ptr %2, ptr %9, align 8, !tbaa !38
  store ptr %3, ptr %10, align 8, !tbaa !114
  store ptr %4, ptr %11, align 8, !tbaa !39
  %12 = load i32, ptr %7, align 4, !tbaa !10
  switch i32 %12, label %216 [
    i32 5, label %13
    i32 38, label %17
    i32 14, label %32
    i32 39, label %36
    i32 15, label %51
    i32 7, label %55
    i32 40, label %59
    i32 16, label %74
    i32 53, label %78
    i32 65, label %82
    i32 62, label %97
    i32 66, label %101
    i32 63, label %116
    i32 55, label %120
    i32 67, label %124
    i32 64, label %139
    i32 20, label %143
    i32 44, label %147
    i32 29, label %162
    i32 45, label %166
    i32 30, label %181
    i32 22, label %185
    i32 46, label %189
    i32 31, label %204
    i32 77, label %208
    i32 1, label %212
  ]

13:                                               ; preds = %5
  %14 = load ptr, ptr %9, align 8, !tbaa !38
  store i32 71319552, ptr %14, align 4, !tbaa !10
  %15 = load ptr, ptr %10, align 8, !tbaa !114
  store i16 9216, ptr %15, align 2, !tbaa !115
  %16 = load ptr, ptr %11, align 8, !tbaa !39
  store i64 128, ptr %16, align 8, !tbaa !8
  br label %217

17:                                               ; preds = %5
  %18 = load i64, ptr %8, align 8, !tbaa !8
  %19 = icmp ne i64 %18, 0
  br i1 %19, label %20, label %25

20:                                               ; preds = %17
  %21 = load i64, ptr %8, align 8, !tbaa !8
  %22 = shl i64 %21, 16
  %23 = and i64 %22, 4128768
  %24 = or i64 88080640, %23
  br label %26

25:                                               ; preds = %17
  br label %26

26:                                               ; preds = %25, %20
  %27 = phi i64 [ %24, %20 ], [ 89129216, %25 ]
  %28 = trunc i64 %27 to i32
  %29 = load ptr, ptr %9, align 8, !tbaa !38
  store i32 %28, ptr %29, align 4, !tbaa !10
  %30 = load ptr, ptr %10, align 8, !tbaa !114
  store i16 9216, ptr %30, align 2, !tbaa !115
  %31 = load ptr, ptr %11, align 8, !tbaa !39
  store i64 128, ptr %31, align 8, !tbaa !8
  br label %217

32:                                               ; preds = %5
  %33 = load ptr, ptr %9, align 8, !tbaa !38
  store i32 89129472, ptr %33, align 4, !tbaa !10
  %34 = load ptr, ptr %10, align 8, !tbaa !114
  store i16 9216, ptr %34, align 2, !tbaa !115
  %35 = load ptr, ptr %11, align 8, !tbaa !39
  store i64 128, ptr %35, align 8, !tbaa !8
  br label %217

36:                                               ; preds = %5
  %37 = load i64, ptr %8, align 8, !tbaa !8
  %38 = icmp ne i64 %37, 0
  br i1 %38, label %39, label %44

39:                                               ; preds = %36
  %40 = load i64, ptr %8, align 8, !tbaa !8
  %41 = shl i64 %40, 16
  %42 = and i64 %41, 4128768
  %43 = or i64 88080640, %42
  br label %45

44:                                               ; preds = %36
  br label %45

45:                                               ; preds = %44, %39
  %46 = phi i64 [ %43, %39 ], [ 89129216, %44 ]
  %47 = trunc i64 %46 to i32
  %48 = load ptr, ptr %9, align 8, !tbaa !38
  store i32 %47, ptr %48, align 4, !tbaa !10
  %49 = load ptr, ptr %10, align 8, !tbaa !114
  store i16 9216, ptr %49, align 2, !tbaa !115
  %50 = load ptr, ptr %11, align 8, !tbaa !39
  store i64 192, ptr %50, align 8, !tbaa !8
  br label %217

51:                                               ; preds = %5
  %52 = load ptr, ptr %9, align 8, !tbaa !38
  store i32 89129472, ptr %52, align 4, !tbaa !10
  %53 = load ptr, ptr %10, align 8, !tbaa !114
  store i16 9216, ptr %53, align 2, !tbaa !115
  %54 = load ptr, ptr %11, align 8, !tbaa !39
  store i64 192, ptr %54, align 8, !tbaa !8
  br label %217

55:                                               ; preds = %5
  %56 = load ptr, ptr %9, align 8, !tbaa !38
  store i32 71319552, ptr %56, align 4, !tbaa !10
  %57 = load ptr, ptr %10, align 8, !tbaa !114
  store i16 9216, ptr %57, align 2, !tbaa !115
  %58 = load ptr, ptr %11, align 8, !tbaa !39
  store i64 256, ptr %58, align 8, !tbaa !8
  br label %217

59:                                               ; preds = %5
  %60 = load i64, ptr %8, align 8, !tbaa !8
  %61 = icmp ne i64 %60, 0
  br i1 %61, label %62, label %67

62:                                               ; preds = %59
  %63 = load i64, ptr %8, align 8, !tbaa !8
  %64 = shl i64 %63, 16
  %65 = and i64 %64, 4128768
  %66 = or i64 88080640, %65
  br label %68

67:                                               ; preds = %59
  br label %68

68:                                               ; preds = %67, %62
  %69 = phi i64 [ %66, %62 ], [ 89129216, %67 ]
  %70 = trunc i64 %69 to i32
  %71 = load ptr, ptr %9, align 8, !tbaa !38
  store i32 %70, ptr %71, align 4, !tbaa !10
  %72 = load ptr, ptr %10, align 8, !tbaa !114
  store i16 9216, ptr %72, align 2, !tbaa !115
  %73 = load ptr, ptr %11, align 8, !tbaa !39
  store i64 256, ptr %73, align 8, !tbaa !8
  br label %217

74:                                               ; preds = %5
  %75 = load ptr, ptr %9, align 8, !tbaa !38
  store i32 89129472, ptr %75, align 4, !tbaa !10
  %76 = load ptr, ptr %10, align 8, !tbaa !114
  store i16 9216, ptr %76, align 2, !tbaa !115
  %77 = load ptr, ptr %11, align 8, !tbaa !39
  store i64 256, ptr %77, align 8, !tbaa !8
  br label %217

78:                                               ; preds = %5
  %79 = load ptr, ptr %9, align 8, !tbaa !38
  store i32 71319552, ptr %79, align 4, !tbaa !10
  %80 = load ptr, ptr %10, align 8, !tbaa !114
  store i16 9222, ptr %80, align 2, !tbaa !115
  %81 = load ptr, ptr %11, align 8, !tbaa !39
  store i64 128, ptr %81, align 8, !tbaa !8
  br label %217

82:                                               ; preds = %5
  %83 = load i64, ptr %8, align 8, !tbaa !8
  %84 = icmp ne i64 %83, 0
  br i1 %84, label %85, label %90

85:                                               ; preds = %82
  %86 = load i64, ptr %8, align 8, !tbaa !8
  %87 = shl i64 %86, 16
  %88 = and i64 %87, 4128768
  %89 = or i64 88080640, %88
  br label %91

90:                                               ; preds = %82
  br label %91

91:                                               ; preds = %90, %85
  %92 = phi i64 [ %89, %85 ], [ 89129216, %90 ]
  %93 = trunc i64 %92 to i32
  %94 = load ptr, ptr %9, align 8, !tbaa !38
  store i32 %93, ptr %94, align 4, !tbaa !10
  %95 = load ptr, ptr %10, align 8, !tbaa !114
  store i16 9222, ptr %95, align 2, !tbaa !115
  %96 = load ptr, ptr %11, align 8, !tbaa !39
  store i64 128, ptr %96, align 8, !tbaa !8
  br label %217

97:                                               ; preds = %5
  %98 = load ptr, ptr %9, align 8, !tbaa !38
  store i32 89129472, ptr %98, align 4, !tbaa !10
  %99 = load ptr, ptr %10, align 8, !tbaa !114
  store i16 9222, ptr %99, align 2, !tbaa !115
  %100 = load ptr, ptr %11, align 8, !tbaa !39
  store i64 128, ptr %100, align 8, !tbaa !8
  br label %217

101:                                              ; preds = %5
  %102 = load i64, ptr %8, align 8, !tbaa !8
  %103 = icmp ne i64 %102, 0
  br i1 %103, label %104, label %109

104:                                              ; preds = %101
  %105 = load i64, ptr %8, align 8, !tbaa !8
  %106 = shl i64 %105, 16
  %107 = and i64 %106, 4128768
  %108 = or i64 88080640, %107
  br label %110

109:                                              ; preds = %101
  br label %110

110:                                              ; preds = %109, %104
  %111 = phi i64 [ %108, %104 ], [ 89129216, %109 ]
  %112 = trunc i64 %111 to i32
  %113 = load ptr, ptr %9, align 8, !tbaa !38
  store i32 %112, ptr %113, align 4, !tbaa !10
  %114 = load ptr, ptr %10, align 8, !tbaa !114
  store i16 9222, ptr %114, align 2, !tbaa !115
  %115 = load ptr, ptr %11, align 8, !tbaa !39
  store i64 192, ptr %115, align 8, !tbaa !8
  br label %217

116:                                              ; preds = %5
  %117 = load ptr, ptr %9, align 8, !tbaa !38
  store i32 89129472, ptr %117, align 4, !tbaa !10
  %118 = load ptr, ptr %10, align 8, !tbaa !114
  store i16 9222, ptr %118, align 2, !tbaa !115
  %119 = load ptr, ptr %11, align 8, !tbaa !39
  store i64 192, ptr %119, align 8, !tbaa !8
  br label %217

120:                                              ; preds = %5
  %121 = load ptr, ptr %9, align 8, !tbaa !38
  store i32 71319552, ptr %121, align 4, !tbaa !10
  %122 = load ptr, ptr %10, align 8, !tbaa !114
  store i16 9222, ptr %122, align 2, !tbaa !115
  %123 = load ptr, ptr %11, align 8, !tbaa !39
  store i64 256, ptr %123, align 8, !tbaa !8
  br label %217

124:                                              ; preds = %5
  %125 = load i64, ptr %8, align 8, !tbaa !8
  %126 = icmp ne i64 %125, 0
  br i1 %126, label %127, label %132

127:                                              ; preds = %124
  %128 = load i64, ptr %8, align 8, !tbaa !8
  %129 = shl i64 %128, 16
  %130 = and i64 %129, 4128768
  %131 = or i64 88080640, %130
  br label %133

132:                                              ; preds = %124
  br label %133

133:                                              ; preds = %132, %127
  %134 = phi i64 [ %131, %127 ], [ 89129216, %132 ]
  %135 = trunc i64 %134 to i32
  %136 = load ptr, ptr %9, align 8, !tbaa !38
  store i32 %135, ptr %136, align 4, !tbaa !10
  %137 = load ptr, ptr %10, align 8, !tbaa !114
  store i16 9222, ptr %137, align 2, !tbaa !115
  %138 = load ptr, ptr %11, align 8, !tbaa !39
  store i64 256, ptr %138, align 8, !tbaa !8
  br label %217

139:                                              ; preds = %5
  %140 = load ptr, ptr %9, align 8, !tbaa !38
  store i32 89129472, ptr %140, align 4, !tbaa !10
  %141 = load ptr, ptr %10, align 8, !tbaa !114
  store i16 9222, ptr %141, align 2, !tbaa !115
  %142 = load ptr, ptr %11, align 8, !tbaa !39
  store i64 256, ptr %142, align 8, !tbaa !8
  br label %217

143:                                              ; preds = %5
  %144 = load ptr, ptr %9, align 8, !tbaa !38
  store i32 71319552, ptr %144, align 4, !tbaa !10
  %145 = load ptr, ptr %10, align 8, !tbaa !114
  store i16 9219, ptr %145, align 2, !tbaa !115
  %146 = load ptr, ptr %11, align 8, !tbaa !39
  store i64 128, ptr %146, align 8, !tbaa !8
  br label %217

147:                                              ; preds = %5
  %148 = load i64, ptr %8, align 8, !tbaa !8
  %149 = icmp ne i64 %148, 0
  br i1 %149, label %150, label %155

150:                                              ; preds = %147
  %151 = load i64, ptr %8, align 8, !tbaa !8
  %152 = shl i64 %151, 16
  %153 = and i64 %152, 4128768
  %154 = or i64 88080640, %153
  br label %156

155:                                              ; preds = %147
  br label %156

156:                                              ; preds = %155, %150
  %157 = phi i64 [ %154, %150 ], [ 89129216, %155 ]
  %158 = trunc i64 %157 to i32
  %159 = load ptr, ptr %9, align 8, !tbaa !38
  store i32 %158, ptr %159, align 4, !tbaa !10
  %160 = load ptr, ptr %10, align 8, !tbaa !114
  store i16 9219, ptr %160, align 2, !tbaa !115
  %161 = load ptr, ptr %11, align 8, !tbaa !39
  store i64 128, ptr %161, align 8, !tbaa !8
  br label %217

162:                                              ; preds = %5
  %163 = load ptr, ptr %9, align 8, !tbaa !38
  store i32 89129472, ptr %163, align 4, !tbaa !10
  %164 = load ptr, ptr %10, align 8, !tbaa !114
  store i16 9219, ptr %164, align 2, !tbaa !115
  %165 = load ptr, ptr %11, align 8, !tbaa !39
  store i64 128, ptr %165, align 8, !tbaa !8
  br label %217

166:                                              ; preds = %5
  %167 = load i64, ptr %8, align 8, !tbaa !8
  %168 = icmp ne i64 %167, 0
  br i1 %168, label %169, label %174

169:                                              ; preds = %166
  %170 = load i64, ptr %8, align 8, !tbaa !8
  %171 = shl i64 %170, 16
  %172 = and i64 %171, 4128768
  %173 = or i64 88080640, %172
  br label %175

174:                                              ; preds = %166
  br label %175

175:                                              ; preds = %174, %169
  %176 = phi i64 [ %173, %169 ], [ 89129216, %174 ]
  %177 = trunc i64 %176 to i32
  %178 = load ptr, ptr %9, align 8, !tbaa !38
  store i32 %177, ptr %178, align 4, !tbaa !10
  %179 = load ptr, ptr %10, align 8, !tbaa !114
  store i16 9219, ptr %179, align 2, !tbaa !115
  %180 = load ptr, ptr %11, align 8, !tbaa !39
  store i64 192, ptr %180, align 8, !tbaa !8
  br label %217

181:                                              ; preds = %5
  %182 = load ptr, ptr %9, align 8, !tbaa !38
  store i32 89129472, ptr %182, align 4, !tbaa !10
  %183 = load ptr, ptr %10, align 8, !tbaa !114
  store i16 9219, ptr %183, align 2, !tbaa !115
  %184 = load ptr, ptr %11, align 8, !tbaa !39
  store i64 192, ptr %184, align 8, !tbaa !8
  br label %217

185:                                              ; preds = %5
  %186 = load ptr, ptr %9, align 8, !tbaa !38
  store i32 71319552, ptr %186, align 4, !tbaa !10
  %187 = load ptr, ptr %10, align 8, !tbaa !114
  store i16 9219, ptr %187, align 2, !tbaa !115
  %188 = load ptr, ptr %11, align 8, !tbaa !39
  store i64 256, ptr %188, align 8, !tbaa !8
  br label %217

189:                                              ; preds = %5
  %190 = load i64, ptr %8, align 8, !tbaa !8
  %191 = icmp ne i64 %190, 0
  br i1 %191, label %192, label %197

192:                                              ; preds = %189
  %193 = load i64, ptr %8, align 8, !tbaa !8
  %194 = shl i64 %193, 16
  %195 = and i64 %194, 4128768
  %196 = or i64 88080640, %195
  br label %198

197:                                              ; preds = %189
  br label %198

198:                                              ; preds = %197, %192
  %199 = phi i64 [ %196, %192 ], [ 89129216, %197 ]
  %200 = trunc i64 %199 to i32
  %201 = load ptr, ptr %9, align 8, !tbaa !38
  store i32 %200, ptr %201, align 4, !tbaa !10
  %202 = load ptr, ptr %10, align 8, !tbaa !114
  store i16 9219, ptr %202, align 2, !tbaa !115
  %203 = load ptr, ptr %11, align 8, !tbaa !39
  store i64 256, ptr %203, align 8, !tbaa !8
  br label %217

204:                                              ; preds = %5
  %205 = load ptr, ptr %9, align 8, !tbaa !38
  store i32 89129472, ptr %205, align 4, !tbaa !10
  %206 = load ptr, ptr %10, align 8, !tbaa !114
  store i16 9219, ptr %206, align 2, !tbaa !115
  %207 = load ptr, ptr %11, align 8, !tbaa !39
  store i64 256, ptr %207, align 8, !tbaa !8
  br label %217

208:                                              ; preds = %5
  %209 = load ptr, ptr %9, align 8, !tbaa !38
  store i32 84935936, ptr %209, align 4, !tbaa !10
  %210 = load ptr, ptr %10, align 8, !tbaa !114
  store i16 8196, ptr %210, align 2, !tbaa !115
  %211 = load ptr, ptr %11, align 8, !tbaa !39
  store i64 256, ptr %211, align 8, !tbaa !8
  br label %217

212:                                              ; preds = %5
  %213 = load ptr, ptr %9, align 8, !tbaa !38
  store i32 67108864, ptr %213, align 4, !tbaa !10
  %214 = load ptr, ptr %10, align 8, !tbaa !114
  store i16 0, ptr %214, align 2, !tbaa !115
  %215 = load ptr, ptr %11, align 8, !tbaa !39
  store i64 0, ptr %215, align 8, !tbaa !8
  br label %217

216:                                              ; preds = %5
  store i32 -134, ptr %6, align 4
  br label %218

217:                                              ; preds = %212, %208, %204, %198, %185, %181, %175, %162, %156, %143, %139, %133, %120, %116, %110, %97, %91, %78, %74, %68, %55, %51, %45, %32, %26, %13
  store i32 0, ptr %6, align 4
  br label %218

218:                                              ; preds = %217, %216
  %219 = load i32, ptr %6, align 4
  ret i32 %219
}