; Function Attrs: mustprogress nofree norecurse nosync nounwind willreturn memory(argmem: write) uwtable
define hidden range(i32 -134, 1) i32 @mbedtls_ssl_cipher_to_psa(i32 noundef %0, i64 noundef %1, ptr noundef writeonly captures(none) %2, ptr noundef writeonly captures(none) %3, ptr noundef writeonly captures(none) %4) local_unnamed_addr #0 {
  switch i32 %0, label %67 [
    i32 5, label %.sink.split
    i32 38, label %6
    i32 14, label %11
    i32 39, label %12
    i32 15, label %17
    i32 7, label %18
    i32 40, label %19
    i32 16, label %24
    i32 53, label %25
    i32 65, label %26
    i32 62, label %31
    i32 66, label %32
    i32 63, label %37
    i32 55, label %38
    i32 67, label %39
    i32 64, label %44
    i32 20, label %45
    i32 44, label %46
    i32 29, label %51
    i32 45, label %52
    i32 30, label %57
    i32 22, label %58
    i32 46, label %59
    i32 31, label %64
    i32 77, label %65
    i32 1, label %66
  ]

6:                                                ; preds = %5
  %.not111 = icmp eq i64 %1, 0
  %.tr112 = trunc i64 %1 to i32
  %7 = shl i32 %.tr112, 16
  %8 = and i32 %7, 4128768
  %9 = or disjoint i32 %8, 88080640
  %10 = select i1 %.not111, i32 89129216, i32 %9
  br label %.sink.split

11:                                               ; preds = %5
  br label %.sink.split

12:                                               ; preds = %5
  %.not109 = icmp eq i64 %1, 0
  %.tr110 = trunc i64 %1 to i32
  %13 = shl i32 %.tr110, 16
  %14 = and i32 %13, 4128768
  %15 = or disjoint i32 %14, 88080640
  %16 = select i1 %.not109, i32 89129216, i32 %15
  br label %.sink.split

17:                                               ; preds = %5
  br label %.sink.split

18:                                               ; preds = %5
  br label %.sink.split

19:                                               ; preds = %5
  %.not107 = icmp eq i64 %1, 0
  %.tr108 = trunc i64 %1 to i32
  %20 = shl i32 %.tr108, 16
  %21 = and i32 %20, 4128768
  %22 = or disjoint i32 %21, 88080640
  %23 = select i1 %.not107, i32 89129216, i32 %22
  br label %.sink.split

24:                                               ; preds = %5
  br label %.sink.split

25:                                               ; preds = %5
  br label %.sink.split

26:                                               ; preds = %5
  %.not105 = icmp eq i64 %1, 0
  %.tr106 = trunc i64 %1 to i32
  %27 = shl i32 %.tr106, 16
  %28 = and i32 %27, 4128768
  %29 = or disjoint i32 %28, 88080640
  %30 = select i1 %.not105, i32 89129216, i32 %29
  br label %.sink.split

31:                                               ; preds = %5
  br label %.sink.split

32:                                               ; preds = %5
  %.not103 = icmp eq i64 %1, 0
  %.tr104 = trunc i64 %1 to i32
  %33 = shl i32 %.tr104, 16
  %34 = and i32 %33, 4128768
  %35 = or disjoint i32 %34, 88080640
  %36 = select i1 %.not103, i32 89129216, i32 %35
  br label %.sink.split

37:                                               ; preds = %5
  br label %.sink.split

38:                                               ; preds = %5
  br label %.sink.split

39:                                               ; preds = %5
  %.not101 = icmp eq i64 %1, 0
  %.tr102 = trunc i64 %1 to i32
  %40 = shl i32 %.tr102, 16
  %41 = and i32 %40, 4128768
  %42 = or disjoint i32 %41, 88080640
  %43 = select i1 %.not101, i32 89129216, i32 %42
  br label %.sink.split

44:                                               ; preds = %5
  br label %.sink.split

45:                                               ; preds = %5
  br label %.sink.split

46:                                               ; preds = %5
  %.not99 = icmp eq i64 %1, 0
  %.tr100 = trunc i64 %1 to i32
  %47 = shl i32 %.tr100, 16
  %48 = and i32 %47, 4128768
  %49 = or disjoint i32 %48, 88080640
  %50 = select i1 %.not99, i32 89129216, i32 %49
  br label %.sink.split

51:                                               ; preds = %5
  br label %.sink.split

52:                                               ; preds = %5
  %.not97 = icmp eq i64 %1, 0
  %.tr98 = trunc i64 %1 to i32
  %53 = shl i32 %.tr98, 16
  %54 = and i32 %53, 4128768
  %55 = or disjoint i32 %54, 88080640
  %56 = select i1 %.not97, i32 89129216, i32 %55
  br label %.sink.split

57:                                               ; preds = %5
  br label %.sink.split

58:                                               ; preds = %5
  br label %.sink.split

59:                                               ; preds = %5
  %.not = icmp eq i64 %1, 0
  %.tr = trunc i64 %1 to i32
  %60 = shl i32 %.tr, 16
  %61 = and i32 %60, 4128768
  %62 = or disjoint i32 %61, 88080640
  %63 = select i1 %.not, i32 89129216, i32 %62
  br label %.sink.split

64:                                               ; preds = %5
  br label %.sink.split

65:                                               ; preds = %5
  br label %.sink.split

66:                                               ; preds = %5
  br label %.sink.split

.sink.split:                                      ; preds = %5, %66, %65, %64, %59, %58, %57, %52, %51, %46, %45, %44, %39, %38, %37, %32, %31, %26, %25, %24, %19, %18, %17, %12, %11, %6
  %.sink114 = phi i32 [ %10, %6 ], [ 89129472, %11 ], [ %16, %12 ], [ 89129472, %17 ], [ 71319552, %18 ], [ %23, %19 ], [ 89129472, %24 ], [ 71319552, %25 ], [ %30, %26 ], [ 89129472, %31 ], [ %36, %32 ], [ 89129472, %37 ], [ 71319552, %38 ], [ %43, %39 ], [ 89129472, %44 ], [ 71319552, %45 ], [ %50, %46 ], [ 89129472, %51 ], [ %56, %52 ], [ 89129472, %57 ], [ 71319552, %58 ], [ %63, %59 ], [ 89129472, %64 ], [ 84935936, %65 ], [ 67108864, %66 ], [ 71319552, %5 ]
  %.sink113 = phi i16 [ 9216, %6 ], [ 9216, %11 ], [ 9216, %12 ], [ 9216, %17 ], [ 9216, %18 ], [ 9216, %19 ], [ 9216, %24 ], [ 9222, %25 ], [ 9222, %26 ], [ 9222, %31 ], [ 9222, %32 ], [ 9222, %37 ], [ 9222, %38 ], [ 9222, %39 ], [ 9222, %44 ], [ 9219, %45 ], [ 9219, %46 ], [ 9219, %51 ], [ 9219, %52 ], [ 9219, %57 ], [ 9219, %58 ], [ 9219, %59 ], [ 9219, %64 ], [ 8196, %65 ], [ 0, %66 ], [ 9216, %5 ]
  %.sink = phi i64 [ 128, %6 ], [ 128, %11 ], [ 192, %12 ], [ 192, %17 ], [ 256, %18 ], [ 256, %19 ], [ 256, %24 ], [ 128, %25 ], [ 128, %26 ], [ 128, %31 ], [ 192, %32 ], [ 192, %37 ], [ 256, %38 ], [ 256, %39 ], [ 256, %44 ], [ 128, %45 ], [ 128, %46 ], [ 128, %51 ], [ 192, %52 ], [ 192, %57 ], [ 256, %58 ], [ 256, %59 ], [ 256, %64 ], [ 256, %65 ], [ 0, %66 ], [ 128, %5 ]
  store i32 %.sink114, ptr %2, align 4, !tbaa !32
  store i16 %.sink113, ptr %3, align 2, !tbaa !102
  store i64 %.sink, ptr %4, align 8, !tbaa !33
  br label %67

67:                                               ; preds = %.sink.split, %5
  %.0 = phi i32 [ -134, %5 ], [ 0, %.sink.split ]
  ret i32 %.0
}